target datalayout = "e-m:e-p270:32:32-p271:32:32-p272:64:64-i64:64-i128:128-f80:128-n8:16:32:64-S128"
target triple = "x86_64-pc-linux-gnu"

%struct.SRP_gN_st = type { ptr, ptr, ptr }

@.str.2 = private unnamed_addr constant [26 x i8] c"../openssl/test/srptest.c\00", align 1
@.str.5 = private unnamed_addr constant [6 x i8] c"alice\00", align 1
@.str.11 = private unnamed_addr constant [32 x i8] c"GN = SRP_get_default_gN(\221024\22)\00", align 1
@.str.12 = private unnamed_addr constant [5 x i8] c"1024\00", align 1
@.str.19 = private unnamed_addr constant [2 x i8] c"B\00", align 1
@.str.20 = private unnamed_addr constant [32 x i8] c"SRP_Verify_B_mod_N(Bpub, GN->N)\00", align 1
@.str.22 = private unnamed_addr constant [2 x i8] c"A\00", align 1
@.str.23 = private unnamed_addr constant [32 x i8] c"SRP_Verify_A_mod_N(Apub, GN->N)\00", align 1
@.str.24 = private unnamed_addr constant [13 x i8] c"Client's key\00", align 1
@.str.25 = private unnamed_addr constant [13 x i8] c"Server's key\00", align 1
@.str.28 = private unnamed_addr constant [33 x i8] c"BEB25379D1A8581EB5A727673A2441EE\00", align 1
@.str.29 = private unnamed_addr constant [69 x i8] c"SRP_create_verifier_BN(\22alice\22, \22password123\22, &s, &v, GN->N, GN->g)\00", align 1
@.str.30 = private unnamed_addr constant [12 x i8] c"password123\00", align 1
@.str.31 = private unnamed_addr constant [11 x i8] c"checking v\00", align 1
@.str.33 = private unnamed_addr constant [2 x i8] c"v\00", align 1
@.str.35 = private unnamed_addr constant [9 x i8] c"    okay\00", align 1
@.str.36 = private unnamed_addr constant [65 x i8] c"E487CB59D31AC550471E81F00F6928E01DDA08E974A004F49E61F5D105284D20\00", align 1
@.str.37 = private unnamed_addr constant [11 x i8] c"checking B\00", align 1
@.str.40 = private unnamed_addr constant [65 x i8] c"60975527035CF2AD1989806F0407210BC81EDC04E2762A56AFD529DDDA2D4393\00", align 1
@.str.41 = private unnamed_addr constant [11 x i8] c"checking A\00", align 1
@.str.44 = private unnamed_addr constant [61 x i8] c"check_bn(\22u\22, u, \22CE38B9593487DA98554ED47D70A7AE5F462EF019\22)\00", align 1
@.str.45 = private unnamed_addr constant [2 x i8] c"u\00", align 1
@.str.46 = private unnamed_addr constant [41 x i8] c"CE38B9593487DA98554ED47D70A7AE5F462EF019\00", align 1
@.str.47 = private unnamed_addr constant [22 x i8] c"checking client's key\00", align 1
@.str.50 = private unnamed_addr constant [22 x i8] c"checking server's key\00", align 1

; Function Attrs: nounwind uwtable
define internal i32 @run_srp_kat() #0 {
  %1 = alloca i32, align 4
  %2 = alloca ptr, align 8
  %3 = alloca ptr, align 8
  %4 = alloca ptr, align 8
  %5 = alloca ptr, align 8
  %6 = alloca ptr, align 8
  %7 = alloca ptr, align 8
  %8 = alloca ptr, align 8
  %9 = alloca ptr, align 8
  %10 = alloca ptr, align 8
  %11 = alloca ptr, align 8
  %12 = alloca ptr, align 8
  call void @llvm.lifetime.start.p0(i64 4, ptr %1) #3
  store i32 0, ptr %1, align 4, !tbaa !4
  call void @llvm.lifetime.start.p0(i64 8, ptr %2) #3
  store ptr null, ptr %2, align 8, !tbaa !8
  call void @llvm.lifetime.start.p0(i64 8, ptr %3) #3
  store ptr null, ptr %3, align 8, !tbaa !8
  call void @llvm.lifetime.start.p0(i64 8, ptr %4) #3
  store ptr null, ptr %4, align 8, !tbaa !8
  call void @llvm.lifetime.start.p0(i64 8, ptr %5) #3
  store ptr null, ptr %5, align 8, !tbaa !8
  call void @llvm.lifetime.start.p0(i64 8, ptr %6) #3
  store ptr null, ptr %6, align 8, !tbaa !8
  call void @llvm.lifetime.start.p0(i64 8, ptr %7) #3
  store ptr null, ptr %7, align 8, !tbaa !8
  call void @llvm.lifetime.start.p0(i64 8, ptr %8) #3
  store ptr null, ptr %8, align 8, !tbaa !8
  call void @llvm.lifetime.start.p0(i64 8, ptr %9) #3
  store ptr null, ptr %9, align 8, !tbaa !8
  call void @llvm.lifetime.start.p0(i64 8, ptr %10) #3
  store ptr null, ptr %10, align 8, !tbaa !8
  call void @llvm.lifetime.start.p0(i64 8, ptr %11) #3
  store ptr null, ptr %11, align 8, !tbaa !8
  call void @llvm.lifetime.start.p0(i64 8, ptr %12) #3
  %13 = call ptr @SRP_get_default_gN(ptr noundef @.str.12)
  store ptr %13, ptr %12, align 8, !tbaa !11
  %14 = call i32 @test_ptr(ptr noundef @.str.2, i32 noundef 152, ptr noundef @.str.11, ptr noundef %13)
  %15 = icmp ne i32 %14, 0
  br i1 %15, label %17, label %16

16:                                               ; preds = %0
  br label %148

17:                                               ; preds = %0
  %18 = call i32 @BN_hex2bn(ptr noundef %2, ptr noundef @.str.28)
  %19 = load ptr, ptr %12, align 8, !tbaa !11
  %20 = getelementptr inbounds nuw %struct.SRP_gN_st, ptr %19, i32 0, i32 2
  %21 = load ptr, ptr %20, align 8, !tbaa !13
  %22 = load ptr, ptr %12, align 8, !tbaa !11
  %23 = getelementptr inbounds nuw %struct.SRP_gN_st, ptr %22, i32 0, i32 1
  %24 = load ptr, ptr %23, align 8, !tbaa !16
  %25 = call i32 @SRP_create_verifier_BN(ptr noundef @.str.5, ptr noundef @.str.30, ptr noundef %2, ptr noundef %3, ptr noundef %21, ptr noundef %24)
  %26 = icmp ne i32 %25, 0
  %27 = zext i1 %26 to i32
  %28 = call i32 @test_true(ptr noundef @.str.2, i32 noundef 157, ptr noundef @.str.29, i32 noundef %27)
  %29 = icmp ne i32 %28, 0
  br i1 %29, label %31, label %30

30:                                               ; preds = %17
  br label %148

31:                                               ; preds = %17
  call void (ptr, i32, ptr, ...) @test_info(ptr noundef @.str.2, i32 noundef 160, ptr noundef @.str.31)
  %32 = load ptr, ptr %3, align 8, !tbaa !8
  %33 = call i32 @check_bn(ptr noundef @.str.33, ptr noundef %32, ptr noundef @.str.34)
  %34 = icmp ne i32 %33, 0
  %35 = zext i1 %34 to i32
  %36 = call i32 @test_true(ptr noundef @.str.2, i32 noundef 166, ptr noundef @.str.32, i32 noundef %35)
  %37 = icmp ne i32 %36, 0
  br i1 %37, label %39, label %38

38:                                               ; preds = %31
  br label %148

39:                                               ; preds = %31
  call void (ptr, ...) @test_note(ptr noundef @.str.35)
  %40 = call i32 @BN_hex2bn(ptr noundef %5, ptr noundef @.str.36)
  %41 = load ptr, ptr %5, align 8, !tbaa !8
  %42 = load ptr, ptr %12, align 8, !tbaa !11
  %43 = getelementptr inbounds nuw %struct.SRP_gN_st, ptr %42, i32 0, i32 2
  %44 = load ptr, ptr %43, align 8, !tbaa !13
  %45 = load ptr, ptr %12, align 8, !tbaa !11
  %46 = getelementptr inbounds nuw %struct.SRP_gN_st, ptr %45, i32 0, i32 1
  %47 = load ptr, ptr %46, align 8, !tbaa !16
  %48 = load ptr, ptr %3, align 8, !tbaa !8
  %49 = call ptr @SRP_Calc_B(ptr noundef %41, ptr noundef %44, ptr noundef %47, ptr noundef %48)
  store ptr %49, ptr %9, align 8, !tbaa !8
  %50 = load ptr, ptr %9, align 8, !tbaa !8
  %51 = load ptr, ptr %12, align 8, !tbaa !11
  %52 = getelementptr inbounds nuw %struct.SRP_gN_st, ptr %51, i32 0, i32 2
  %53 = load ptr, ptr %52, align 8, !tbaa !13
  %54 = call i32 @SRP_Verify_B_mod_N(ptr noundef %50, ptr noundef %53)
  %55 = icmp ne i32 %54, 0
  %56 = zext i1 %55 to i32
  %57 = call i32 @test_true(ptr noundef @.str.2, i32 noundef 176, ptr noundef @.str.20, i32 noundef %56)
  %58 = icmp ne i32 %57, 0
  br i1 %58, label %60, label %59

59:                                               ; preds = %39
  br label %148

60:                                               ; preds = %39
  call void (ptr, i32, ptr, ...) @test_info(ptr noundef @.str.2, i32 noundef 179, ptr noundef @.str.37)
  %61 = load ptr, ptr %9, align 8, !tbaa !8
  %62 = call i32 @check_bn(ptr noundef @.str.19, ptr noundef %61, ptr noundef @.str.39)
  %63 = icmp ne i32 %62, 0
  %64 = zext i1 %63 to i32
  %65 = call i32 @test_true(ptr noundef @.str.2, i32 noundef 185, ptr noundef @.str.38, i32 noundef %64)
  %66 = icmp ne i32 %65, 0
  br i1 %66, label %68, label %67

67:                                               ; preds = %60
  br label %148

68:                                               ; preds = %60
  call void (ptr, ...) @test_note(ptr noundef @.str.35)
  %69 = call i32 @BN_hex2bn(ptr noundef %4, ptr noundef @.str.40)
  %70 = load ptr, ptr %4, align 8, !tbaa !8
  %71 = load ptr, ptr %12, align 8, !tbaa !11
  %72 = getelementptr inbounds nuw %struct.SRP_gN_st, ptr %71, i32 0, i32 2
  %73 = load ptr, ptr %72, align 8, !tbaa !13
  %74 = load ptr, ptr %12, align 8, !tbaa !11
  %75 = getelementptr inbounds nuw %struct.SRP_gN_st, ptr %74, i32 0, i32 1
  %76 = load ptr, ptr %75, align 8, !tbaa !16
  %77 = call ptr @SRP_Calc_A(ptr noundef %70, ptr noundef %73, ptr noundef %76)
  store ptr %77, ptr %8, align 8, !tbaa !8
  %78 = load ptr, ptr %8, align 8, !tbaa !8
  %79 = load ptr, ptr %12, align 8, !tbaa !11
  %80 = getelementptr inbounds nuw %struct.SRP_gN_st, ptr %79, i32 0, i32 2
  %81 = load ptr, ptr %80, align 8, !tbaa !13
  %82 = call i32 @SRP_Verify_A_mod_N(ptr noundef %78, ptr noundef %81)
  %83 = icmp ne i32 %82, 0
  %84 = zext i1 %83 to i32
  %85 = call i32 @test_true(ptr noundef @.str.2, i32 noundef 195, ptr noundef @.str.23, i32 noundef %84)
  %86 = icmp ne i32 %85, 0
  br i1 %86, label %88, label %87

87:                                               ; preds = %68
  br label %148

88:                                               ; preds = %68
  call void (ptr, i32, ptr, ...) @test_info(ptr noundef @.str.2, i32 noundef 198, ptr noundef @.str.41)
  %89 = load ptr, ptr %8, align 8, !tbaa !8
  %90 = call i32 @check_bn(ptr noundef @.str.22, ptr noundef %89, ptr noundef @.str.43)
  %91 = icmp ne i32 %90, 0
  %92 = zext i1 %91 to i32
  %93 = call i32 @test_true(ptr noundef @.str.2, i32 noundef 204, ptr noundef @.str.42, i32 noundef %92)
  %94 = icmp ne i32 %93, 0
  br i1 %94, label %96, label %95

95:                                               ; preds = %88
  br label %148

96:                                               ; preds = %88
  call void (ptr, ...) @test_note(ptr noundef @.str.35)
  %97 = load ptr, ptr %8, align 8, !tbaa !8
  %98 = load ptr, ptr %9, align 8, !tbaa !8
  %99 = load ptr, ptr %12, align 8, !tbaa !11
  %100 = getelementptr inbounds nuw %struct.SRP_gN_st, ptr %99, i32 0, i32 2
  %101 = load ptr, ptr %100, align 8, !tbaa !13
  %102 = call ptr @SRP_Calc_u(ptr noundef %97, ptr noundef %98, ptr noundef %101)
  store ptr %102, ptr %6, align 8, !tbaa !8
  %103 = load ptr, ptr %6, align 8, !tbaa !8
  %104 = call i32 @check_bn(ptr noundef @.str.45, ptr noundef %103, ptr noundef @.str.46)
  %105 = icmp ne i32 %104, 0
  %106 = zext i1 %105 to i32
  %107 = call i32 @test_true(ptr noundef @.str.2, i32 noundef 212, ptr noundef @.str.44, i32 noundef %106)
  %108 = icmp ne i32 %107, 0
  br i1 %108, label %110, label %109

109:                                              ; preds = %96
  br label %148

110:                                              ; preds = %96
  %111 = load ptr, ptr %2, align 8, !tbaa !8
  %112 = call ptr @SRP_Calc_x(ptr noundef %111, ptr noundef @.str.5, ptr noundef @.str.30)
  store ptr %112, ptr %7, align 8, !tbaa !8
  %113 = load ptr, ptr %12, align 8, !tbaa !11
  %114 = getelementptr inbounds nuw %struct.SRP_gN_st, ptr %113, i32 0, i32 2
  %115 = load ptr, ptr %114, align 8, !tbaa !13
  %116 = load ptr, ptr %9, align 8, !tbaa !8
  %117 = load ptr, ptr %12, align 8, !tbaa !11
  %118 = getelementptr inbounds nuw %struct.SRP_gN_st, ptr %117, i32 0, i32 1
  %119 = load ptr, ptr %118, align 8, !tbaa !16
  %120 = load ptr, ptr %7, align 8, !tbaa !8
  %121 = load ptr, ptr %4, align 8, !tbaa !8
  %122 = load ptr, ptr %6, align 8, !tbaa !8
  %123 = call ptr @SRP_Calc_client_key(ptr noundef %115, ptr noundef %116, ptr noundef %119, ptr noundef %120, ptr noundef %121, ptr noundef %122)
  store ptr %123, ptr %10, align 8, !tbaa !8
  call void (ptr, i32, ptr, ...) @test_info(ptr noundef @.str.2, i32 noundef 218, ptr noundef @.str.47)
  %124 = load ptr, ptr %10, align 8, !tbaa !8
  %125 = call i32 @check_bn(ptr noundef @.str.24, ptr noundef %124, ptr noundef @.str.49)
  %126 = icmp ne i32 %125, 0
  %127 = zext i1 %126 to i32
  %128 = call i32 @test_true(ptr noundef @.str.2, i32 noundef 224, ptr noundef @.str.48, i32 noundef %127)
  %129 = icmp ne i32 %128, 0
  br i1 %129, label %131, label %130

130:                                              ; preds = %110
  br label %148

131:                                              ; preds = %110
  call void (ptr, ...) @test_note(ptr noundef @.str.35)
  %132 = load ptr, ptr %8, align 8, !tbaa !8
  %133 = load ptr, ptr %3, align 8, !tbaa !8
  %134 = load ptr, ptr %6, align 8, !tbaa !8
  %135 = load ptr, ptr %5, align 8, !tbaa !8
  %136 = load ptr, ptr %12, align 8, !tbaa !11
  %137 = getelementptr inbounds nuw %struct.SRP_gN_st, ptr %136, i32 0, i32 2
  %138 = load ptr, ptr %137, align 8, !tbaa !13
  %139 = call ptr @SRP_Calc_server_key(ptr noundef %132, ptr noundef %133, ptr noundef %134, ptr noundef %135, ptr noundef %138)
  store ptr %139, ptr %11, align 8, !tbaa !8
  call void (ptr, i32, ptr, ...) @test_info(ptr noundef @.str.2, i32 noundef 230, ptr noundef @.str.50)
  %140 = load ptr, ptr %11, align 8, !tbaa !8
  %141 = call i32 @check_bn(ptr noundef @.str.25, ptr noundef %140, ptr noundef @.str.49)
  %142 = icmp ne i32 %141, 0
  %143 = zext i1 %142 to i32
  %144 = call i32 @test_true(ptr noundef @.str.2, i32 noundef 236, ptr noundef @.str.51, i32 noundef %143)
  %145 = icmp ne i32 %144, 0
  br i1 %145, label %147, label %146

146:                                              ; preds = %131
  br label %148

147:                                              ; preds = %131
  call void (ptr, ...) @test_note(ptr noundef @.str.35)
  store i32 1, ptr %1, align 4, !tbaa !4
  br label %148

148:                                              ; preds = %147, %146, %130, %109, %95, %87, %67, %59, %38, %30, %16
  %149 = load ptr, ptr %10, align 8, !tbaa !8
  call void @BN_clear_free(ptr noundef %149)
  %150 = load ptr, ptr %11, align 8, !tbaa !8
  call void @BN_clear_free(ptr noundef %150)
  %151 = load ptr, ptr %7, align 8, !tbaa !8
  call void @BN_clear_free(ptr noundef %151)
  %152 = load ptr, ptr %6, align 8, !tbaa !8
  call void @BN_free(ptr noundef %152)
  %153 = load ptr, ptr %8, align 8, !tbaa !8
  call void @BN_free(ptr noundef %153)
  %154 = load ptr, ptr %4, align 8, !tbaa !8
  call void @BN_clear_free(ptr noundef %154)
  %155 = load ptr, ptr %9, align 8, !tbaa !8
  call void @BN_free(ptr noundef %155)
  %156 = load ptr, ptr %5, align 8, !tbaa !8
  call void @BN_clear_free(ptr noundef %156)
  %157 = load ptr, ptr %2, align 8, !tbaa !8
  call void @BN_free(ptr noundef %157)
  %158 = load ptr, ptr %3, align 8, !tbaa !8
  call void @BN_clear_free(ptr noundef %158)
  %159 = load i32, ptr %1, align 4, !tbaa !4
  call void @llvm.lifetime.end.p0(i64 8, ptr %12) #3
  call void @llvm.lifetime.end.p0(i64 8, ptr %11) #3
  call void @llvm.lifetime.end.p0(i64 8, ptr %10) #3
  call void @llvm.lifetime.end.p0(i64 8, ptr %9) #3
  call void @llvm.lifetime.end.p0(i64 8, ptr %8) #3
  call void @llvm.lifetime.end.p0(i64 8, ptr %7) #3
  call void @llvm.lifetime.end.p0(i64 8, ptr %6) #3
  call void @llvm.lifetime.end.p0(i64 8, ptr %5) #3
  call void @llvm.lifetime.end.p0(i64 8, ptr %4) #3
  call void @llvm.lifetime.end.p0(i64 8, ptr %3) #3
  call void @llvm.lifetime.end.p0(i64 8, ptr %2) #3
  call void @llvm.lifetime.end.p0(i64 4, ptr %1) #3
  ret i32 %159
}