; Function Attrs: nounwind uwtable
define internal range(i32 0, 2) i32 @run_srp_kat() #0 {
  %1 = alloca ptr, align 8
  %2 = alloca ptr, align 8
  %3 = alloca ptr, align 8
  %4 = alloca ptr, align 8
  call void @llvm.lifetime.start.p0(i64 8, ptr nonnull %1) #3
  store ptr null, ptr %1, align 8, !tbaa !4
  call void @llvm.lifetime.start.p0(i64 8, ptr nonnull %2) #3
  store ptr null, ptr %2, align 8, !tbaa !4
  call void @llvm.lifetime.start.p0(i64 8, ptr nonnull %3) #3
  store ptr null, ptr %3, align 8, !tbaa !4
  call void @llvm.lifetime.start.p0(i64 8, ptr nonnull %4) #3
  store ptr null, ptr %4, align 8, !tbaa !4
  %5 = tail call ptr @SRP_get_default_gN(ptr noundef nonnull @.str.12) #3
  %6 = tail call i32 @test_ptr(ptr noundef nonnull @.str.2, i32 noundef 152, ptr noundef nonnull @.str.11, ptr noundef %5) #3
  %.not = icmp eq i32 %6, 0
  br i1 %.not, label %84, label %7

7:                                                ; preds = %0
  %8 = call i32 @BN_hex2bn(ptr noundef nonnull %1, ptr noundef nonnull @.str.28) #3
  %9 = getelementptr inbounds nuw i8, ptr %5, i64 16
  %10 = load ptr, ptr %9, align 8, !tbaa !9
  %11 = getelementptr inbounds nuw i8, ptr %5, i64 8
  %12 = load ptr, ptr %11, align 8, !tbaa !12
  %13 = call i32 @SRP_create_verifier_BN(ptr noundef nonnull @.str.5, ptr noundef nonnull @.str.30, ptr noundef nonnull %1, ptr noundef nonnull %2, ptr noundef %10, ptr noundef %12) #3
  %14 = icmp ne i32 %13, 0
  %15 = zext i1 %14 to i32
  %16 = call i32 @test_true(ptr noundef nonnull @.str.2, i32 noundef 157, ptr noundef nonnull @.str.29, i32 noundef %15) #3
  %.not38 = icmp eq i32 %16, 0
  br i1 %.not38, label %84, label %17

17:                                               ; preds = %7
  call void (ptr, i32, ptr, ...) @test_info(ptr noundef nonnull @.str.2, i32 noundef 160, ptr noundef nonnull @.str.31) #3
  %18 = load ptr, ptr %2, align 8, !tbaa !4
  %19 = call fastcc i32 @check_bn(ptr noundef nonnull @.str.33, ptr noundef %18, ptr noundef nonnull @.str.34)
  %20 = icmp ne i32 %19, 0
  %21 = zext i1 %20 to i32
  %22 = call i32 @test_true(ptr noundef nonnull @.str.2, i32 noundef 166, ptr noundef nonnull @.str.32, i32 noundef %21) #3
  %.not39 = icmp eq i32 %22, 0
  br i1 %.not39, label %84, label %23

23:                                               ; preds = %17
  call void (ptr, ...) @test_note(ptr noundef nonnull @.str.35) #3
  %24 = call i32 @BN_hex2bn(ptr noundef nonnull %4, ptr noundef nonnull @.str.36) #3
  %25 = load ptr, ptr %4, align 8, !tbaa !4
  %26 = load ptr, ptr %9, align 8, !tbaa !9
  %27 = load ptr, ptr %11, align 8, !tbaa !12
  %28 = load ptr, ptr %2, align 8, !tbaa !4
  %29 = call ptr @SRP_Calc_B(ptr noundef %25, ptr noundef %26, ptr noundef %27, ptr noundef %28) #3
  %30 = load ptr, ptr %9, align 8, !tbaa !9
  %31 = call i32 @SRP_Verify_B_mod_N(ptr noundef %29, ptr noundef %30) #3
  %32 = icmp ne i32 %31, 0
  %33 = zext i1 %32 to i32
  %34 = call i32 @test_true(ptr noundef nonnull @.str.2, i32 noundef 176, ptr noundef nonnull @.str.20, i32 noundef %33) #3
  %.not40 = icmp eq i32 %34, 0
  br i1 %.not40, label %84, label %35

35:                                               ; preds = %23
  call void (ptr, i32, ptr, ...) @test_info(ptr noundef nonnull @.str.2, i32 noundef 179, ptr noundef nonnull @.str.37) #3
  %36 = call fastcc i32 @check_bn(ptr noundef nonnull @.str.19, ptr noundef %29, ptr noundef nonnull @.str.39)
  %37 = icmp ne i32 %36, 0
  %38 = zext i1 %37 to i32
  %39 = call i32 @test_true(ptr noundef nonnull @.str.2, i32 noundef 185, ptr noundef nonnull @.str.38, i32 noundef %38) #3
  %.not41 = icmp eq i32 %39, 0
  br i1 %.not41, label %84, label %40

40:                                               ; preds = %35
  call void (ptr, ...) @test_note(ptr noundef nonnull @.str.35) #3
  %41 = call i32 @BN_hex2bn(ptr noundef nonnull %3, ptr noundef nonnull @.str.40) #3
  %42 = load ptr, ptr %3, align 8, !tbaa !4
  %43 = load ptr, ptr %9, align 8, !tbaa !9
  %44 = load ptr, ptr %11, align 8, !tbaa !12
  %45 = call ptr @SRP_Calc_A(ptr noundef %42, ptr noundef %43, ptr noundef %44) #3
  %46 = load ptr, ptr %9, align 8, !tbaa !9
  %47 = call i32 @SRP_Verify_A_mod_N(ptr noundef %45, ptr noundef %46) #3
  %48 = icmp ne i32 %47, 0
  %49 = zext i1 %48 to i32
  %50 = call i32 @test_true(ptr noundef nonnull @.str.2, i32 noundef 195, ptr noundef nonnull @.str.23, i32 noundef %49) #3
  %.not42 = icmp eq i32 %50, 0
  br i1 %.not42, label %84, label %51

51:                                               ; preds = %40
  call void (ptr, i32, ptr, ...) @test_info(ptr noundef nonnull @.str.2, i32 noundef 198, ptr noundef nonnull @.str.41) #3
  %52 = call fastcc i32 @check_bn(ptr noundef nonnull @.str.22, ptr noundef %45, ptr noundef nonnull @.str.43)
  %53 = icmp ne i32 %52, 0
  %54 = zext i1 %53 to i32
  %55 = call i32 @test_true(ptr noundef nonnull @.str.2, i32 noundef 204, ptr noundef nonnull @.str.42, i32 noundef %54) #3
  %.not43 = icmp eq i32 %55, 0
  br i1 %.not43, label %84, label %56

56:                                               ; preds = %51
  call void (ptr, ...) @test_note(ptr noundef nonnull @.str.35) #3
  %57 = load ptr, ptr %9, align 8, !tbaa !9
  %58 = call ptr @SRP_Calc_u(ptr noundef %45, ptr noundef %29, ptr noundef %57) #3
  %59 = call fastcc i32 @check_bn(ptr noundef nonnull @.str.45, ptr noundef %58, ptr noundef nonnull @.str.46)
  %60 = icmp ne i32 %59, 0
  %61 = zext i1 %60 to i32
  %62 = call i32 @test_true(ptr noundef nonnull @.str.2, i32 noundef 212, ptr noundef nonnull @.str.44, i32 noundef %61) #3
  %.not44 = icmp eq i32 %62, 0
  br i1 %.not44, label %84, label %63

63:                                               ; preds = %56
  %64 = load ptr, ptr %1, align 8, !tbaa !4
  %65 = call ptr @SRP_Calc_x(ptr noundef %64, ptr noundef nonnull @.str.5, ptr noundef nonnull @.str.30) #3
  %66 = load ptr, ptr %9, align 8, !tbaa !9
  %67 = load ptr, ptr %11, align 8, !tbaa !12
  %68 = load ptr, ptr %3, align 8, !tbaa !4
  %69 = call ptr @SRP_Calc_client_key(ptr noundef %66, ptr noundef %29, ptr noundef %67, ptr noundef %65, ptr noundef %68, ptr noundef %58) #3
  call void (ptr, i32, ptr, ...) @test_info(ptr noundef nonnull @.str.2, i32 noundef 218, ptr noundef nonnull @.str.47) #3
  %70 = call fastcc i32 @check_bn(ptr noundef nonnull @.str.24, ptr noundef %69, ptr noundef nonnull @.str.49)
  %71 = icmp ne i32 %70, 0
  %72 = zext i1 %71 to i32
  %73 = call i32 @test_true(ptr noundef nonnull @.str.2, i32 noundef 224, ptr noundef nonnull @.str.48, i32 noundef %72) #3
  %.not45 = icmp eq i32 %73, 0
  br i1 %.not45, label %84, label %74

74:                                               ; preds = %63
  call void (ptr, ...) @test_note(ptr noundef nonnull @.str.35) #3
  %75 = load ptr, ptr %2, align 8, !tbaa !4
  %76 = load ptr, ptr %4, align 8, !tbaa !4
  %77 = load ptr, ptr %9, align 8, !tbaa !9
  %78 = call ptr @SRP_Calc_server_key(ptr noundef %45, ptr noundef %75, ptr noundef %58, ptr noundef %76, ptr noundef %77) #3
  call void (ptr, i32, ptr, ...) @test_info(ptr noundef nonnull @.str.2, i32 noundef 230, ptr noundef nonnull @.str.50) #3
  %79 = call fastcc i32 @check_bn(ptr noundef nonnull @.str.25, ptr noundef %78, ptr noundef nonnull @.str.49)
  %80 = icmp ne i32 %79, 0
  %81 = zext i1 %80 to i32
  %82 = call i32 @test_true(ptr noundef nonnull @.str.2, i32 noundef 236, ptr noundef nonnull @.str.51, i32 noundef %81) #3
  %.not46 = icmp eq i32 %82, 0
  br i1 %.not46, label %84, label %83

83:                                               ; preds = %74
  call void (ptr, ...) @test_note(ptr noundef nonnull @.str.35) #3
  br label %84

84:                                               ; preds = %74, %63, %56, %51, %40, %35, %23, %17, %7, %0, %83
  %.037 = phi ptr [ %58, %83 ], [ %58, %74 ], [ %58, %63 ], [ %58, %56 ], [ null, %51 ], [ null, %40 ], [ null, %35 ], [ null, %23 ], [ null, %17 ], [ null, %7 ], [ null, %0 ]
  %.036 = phi ptr [ %65, %83 ], [ %65, %74 ], [ %65, %63 ], [ null, %56 ], [ null, %51 ], [ null, %40 ], [ null, %35 ], [ null, %23 ], [ null, %17 ], [ null, %7 ], [ null, %0 ]
  %.035 = phi ptr [ %45, %83 ], [ %45, %74 ], [ %45, %63 ], [ %45, %56 ], [ %45, %51 ], [ %45, %40 ], [ null, %35 ], [ null, %23 ], [ null, %17 ], [ null, %7 ], [ null, %0 ]
  %.034 = phi ptr [ %29, %83 ], [ %29, %74 ], [ %29, %63 ], [ %29, %56 ], [ %29, %51 ], [ %29, %40 ], [ %29, %35 ], [ %29, %23 ], [ null, %17 ], [ null, %7 ], [ null, %0 ]
  %.033 = phi ptr [ %69, %83 ], [ %69, %74 ], [ %69, %63 ], [ null, %56 ], [ null, %51 ], [ null, %40 ], [ null, %35 ], [ null, %23 ], [ null, %17 ], [ null, %7 ], [ null, %0 ]
  %.032 = phi ptr [ %78, %83 ], [ %78, %74 ], [ null, %63 ], [ null, %56 ], [ null, %51 ], [ null, %40 ], [ null, %35 ], [ null, %23 ], [ null, %17 ], [ null, %7 ], [ null, %0 ]
  %.0 = phi i32 [ 1, %83 ], [ 0, %74 ], [ 0, %63 ], [ 0, %56 ], [ 0, %51 ], [ 0, %40 ], [ 0, %35 ], [ 0, %23 ], [ 0, %17 ], [ 0, %7 ], [ 0, %0 ]
  call void @BN_clear_free(ptr noundef %.033) #3
  call void @BN_clear_free(ptr noundef %.032) #3
  call void @BN_clear_free(ptr noundef %.036) #3
  call void @BN_free(ptr noundef %.037) #3
  call void @BN_free(ptr noundef %.035) #3
  %85 = load ptr, ptr %3, align 8, !tbaa !4
  call void @BN_clear_free(ptr noundef %85) #3
  call void @BN_free(ptr noundef %.034) #3
  %86 = load ptr, ptr %4, align 8, !tbaa !4
  call void @BN_clear_free(ptr noundef %86) #3
  %87 = load ptr, ptr %1, align 8, !tbaa !4
  call void @BN_free(ptr noundef %87) #3
  %88 = load ptr, ptr %2, align 8, !tbaa !4
  call void @BN_clear_free(ptr noundef %88) #3
  call void @llvm.lifetime.end.p0(i64 8, ptr nonnull %4) #3
  call void @llvm.lifetime.end.p0(i64 8, ptr nonnull %3) #3
  call void @llvm.lifetime.end.p0(i64 8, ptr nonnull %2) #3
  call void @llvm.lifetime.end.p0(i64 8, ptr nonnull %1) #3
  ret i32 %.0
}